target datalayout = "e-m:e-p270:32:32-p271:32:32-p272:64:64-i64:64-i128:128-f80:128-n8:16:32:64-S128"
target triple = "x86_64-pc-linux-gnu"

%struct.Mem_Step_t_ = type { i32, ptr, i32, ptr, i32, i32, ptr }

; Function Attrs: nounwind uwtable
define ptr @Mem_StepEntryFetch(ptr noundef %0, i32 noundef %1) #0 {
  %3 = alloca ptr, align 8
  %4 = alloca ptr, align 8
  %5 = alloca i32, align 4
  store ptr %0, ptr %4, align 8, !tbaa !44
  store i32 %1, ptr %5, align 4, !tbaa !3
  %6 = load i32, ptr %5, align 4, !tbaa !3
  %7 = icmp eq i32 %6, 0
  br i1 %7, label %8, label %9

8:                                                ; preds = %2
  store ptr null, ptr %3, align 8
  br label %94

9:                                                ; preds = %2
  %10 = load i32, ptr %5, align 4, !tbaa !3
  %11 = load ptr, ptr %4, align 8, !tbaa !44
  %12 = getelementptr inbounds nuw %struct.Mem_Step_t_, ptr %11, i32 0, i32 2
  %13 = load i32, ptr %12, align 8, !tbaa !51
  %14 = icmp sgt i32 %10, %13
  br i1 %14, label %15, label %85

15:                                               ; preds = %9
  %16 = load ptr, ptr %4, align 8, !tbaa !44
  %17 = getelementptr inbounds nuw %struct.Mem_Step_t_, ptr %16, i32 0, i32 5
  %18 = load i32, ptr %17, align 4, !tbaa !58
  %19 = load ptr, ptr %4, align 8, !tbaa !44
  %20 = getelementptr inbounds nuw %struct.Mem_Step_t_, ptr %19, i32 0, i32 4
  %21 = load i32, ptr %20, align 8, !tbaa !61
  %22 = icmp eq i32 %18, %21
  br i1 %22, label %23, label %61

23:                                               ; preds = %15
  %24 = load ptr, ptr %4, align 8, !tbaa !44
  %25 = getelementptr inbounds nuw %struct.Mem_Step_t_, ptr %24, i32 0, i32 4
  %26 = load i32, ptr %25, align 8, !tbaa !61
  %27 = icmp eq i32 %26, 0
  br i1 %27, label %28, label %31

28:                                               ; preds = %23
  %29 = load ptr, ptr %4, align 8, !tbaa !44
  %30 = getelementptr inbounds nuw %struct.Mem_Step_t_, ptr %29, i32 0, i32 4
  store i32 32, ptr %30, align 8, !tbaa !61
  br label %31

31:                                               ; preds = %28, %23
  %32 = load ptr, ptr %4, align 8, !tbaa !44
  %33 = getelementptr inbounds nuw %struct.Mem_Step_t_, ptr %32, i32 0, i32 4
  %34 = load i32, ptr %33, align 8, !tbaa !61
  %35 = mul nsw i32 %34, 2
  store i32 %35, ptr %33, align 8, !tbaa !61
  %36 = load ptr, ptr %4, align 8, !tbaa !44
  %37 = getelementptr inbounds nuw %struct.Mem_Step_t_, ptr %36, i32 0, i32 6
  %38 = load ptr, ptr %37, align 8, !tbaa !57
  %39 = icmp ne ptr %38, null
  br i1 %39, label %40, label %50

40:                                               ; preds = %31
  %41 = load ptr, ptr %4, align 8, !tbaa !44
  %42 = getelementptr inbounds nuw %struct.Mem_Step_t_, ptr %41, i32 0, i32 6
  %43 = load ptr, ptr %42, align 8, !tbaa !57
  %44 = load ptr, ptr %4, align 8, !tbaa !44
  %45 = getelementptr inbounds nuw %struct.Mem_Step_t_, ptr %44, i32 0, i32 4
  %46 = load i32, ptr %45, align 8, !tbaa !61
  %47 = sext i32 %46 to i64
  %48 = mul i64 8, %47
  %49 = call ptr @realloc(ptr noundef %43, i64 noundef %48) #9
  br label %57

50:                                               ; preds = %31
  %51 = load ptr, ptr %4, align 8, !tbaa !44
  %52 = getelementptr inbounds nuw %struct.Mem_Step_t_, ptr %51, i32 0, i32 4
  %53 = load i32, ptr %52, align 8, !tbaa !61
  %54 = sext i32 %53 to i64
  %55 = mul i64 8, %54
  %56 = call noalias ptr @malloc(i64 noundef %55) #8
  br label %57

57:                                               ; preds = %50, %40
  %58 = phi ptr [ %49, %40 ], [ %56, %50 ]
  %59 = load ptr, ptr %4, align 8, !tbaa !44
  %60 = getelementptr inbounds nuw %struct.Mem_Step_t_, ptr %59, i32 0, i32 6
  store ptr %58, ptr %60, align 8, !tbaa !57
  br label %61

61:                                               ; preds = %57, %15
  %62 = load i32, ptr %5, align 4, !tbaa !3
  %63 = sext i32 %62 to i64
  %64 = mul i64 1, %63
  %65 = call noalias ptr @malloc(i64 noundef %64) #8
  %66 = load ptr, ptr %4, align 8, !tbaa !44
  %67 = getelementptr inbounds nuw %struct.Mem_Step_t_, ptr %66, i32 0, i32 6
  %68 = load ptr, ptr %67, align 8, !tbaa !57
  %69 = load ptr, ptr %4, align 8, !tbaa !44
  %70 = getelementptr inbounds nuw %struct.Mem_Step_t_, ptr %69, i32 0, i32 5
  %71 = load i32, ptr %70, align 4, !tbaa !58
  %72 = add nsw i32 %71, 1
  store i32 %72, ptr %70, align 4, !tbaa !58
  %73 = sext i32 %71 to i64
  %74 = getelementptr inbounds ptr, ptr %68, i64 %73
  store ptr %65, ptr %74, align 8, !tbaa !59
  %75 = load ptr, ptr %4, align 8, !tbaa !44
  %76 = getelementptr inbounds nuw %struct.Mem_Step_t_, ptr %75, i32 0, i32 6
  %77 = load ptr, ptr %76, align 8, !tbaa !57
  %78 = load ptr, ptr %4, align 8, !tbaa !44
  %79 = getelementptr inbounds nuw %struct.Mem_Step_t_, ptr %78, i32 0, i32 5
  %80 = load i32, ptr %79, align 4, !tbaa !58
  %81 = sub nsw i32 %80, 1
  %82 = sext i32 %81 to i64
  %83 = getelementptr inbounds ptr, ptr %77, i64 %82
  %84 = load ptr, ptr %83, align 8, !tbaa !59
  store ptr %84, ptr %3, align 8
  br label %94

85:                                               ; preds = %9
  %86 = load ptr, ptr %4, align 8, !tbaa !44
  %87 = getelementptr inbounds nuw %struct.Mem_Step_t_, ptr %86, i32 0, i32 3
  %88 = load ptr, ptr %87, align 8, !tbaa !52
  %89 = load i32, ptr %5, align 4, !tbaa !3
  %90 = sext i32 %89 to i64
  %91 = getelementptr inbounds ptr, ptr %88, i64 %90
  %92 = load ptr, ptr %91, align 8, !tbaa !7
  %93 = call ptr @Mem_FixedEntryFetch(ptr noundef %92)
  store ptr %93, ptr %3, align 8
  br label %94

94:                                               ; preds = %85, %61, %8
  %95 = load ptr, ptr %3, align 8
  ret ptr %95
}