; Function Attrs: nounwind uwtable
define ptr @Mem_StepEntryFetch(ptr noundef captures(none) %0, i32 noundef %1) local_unnamed_addr #2 {
  %3 = icmp eq i32 %1, 0
  br i1 %3, label %47, label %4

4:                                                ; preds = %2
  %5 = getelementptr inbounds nuw i8, ptr %0, i64 16
  %6 = load i32, ptr %5, align 8, !tbaa !46
  %7 = icmp sgt i32 %1, %6
  br i1 %7, label %8, label %40

8:                                                ; preds = %4
  %9 = getelementptr inbounds nuw i8, ptr %0, i64 36
  %10 = load i32, ptr %9, align 4, !tbaa !53
  %11 = getelementptr inbounds nuw i8, ptr %0, i64 32
  %12 = load i32, ptr %11, align 8, !tbaa !56
  %13 = icmp eq i32 %10, %12
  br i1 %13, label %14, label %._crit_edge

._crit_edge:                                      ; preds = %8
  %.phi.trans.insert = getelementptr inbounds nuw i8, ptr %0, i64 40
  %.pre = load ptr, ptr %.phi.trans.insert, align 8, !tbaa !52
  br label %28

14:                                               ; preds = %8
  %15 = icmp eq i32 %10, 0
  %16 = shl nsw i32 %10, 1
  %17 = select i1 %15, i32 64, i32 %16
  store i32 %17, ptr %11, align 8, !tbaa !56
  %18 = getelementptr inbounds nuw i8, ptr %0, i64 40
  %19 = load ptr, ptr %18, align 8, !tbaa !52
  %.not = icmp eq ptr %19, null
  %20 = sext i32 %17 to i64
  %21 = shl nsw i64 %20, 3
  br i1 %.not, label %24, label %22

22:                                               ; preds = %14
  %23 = tail call ptr @realloc(ptr noundef nonnull %19, i64 noundef %21) #16
  %.pre23.pre = load i32, ptr %9, align 4, !tbaa !53
  br label %26

24:                                               ; preds = %14
  %25 = tail call noalias ptr @malloc(i64 noundef %21) #14
  br label %26

26:                                               ; preds = %24, %22
  %.pre23 = phi i32 [ %.pre23.pre, %22 ], [ %10, %24 ]
  %27 = phi ptr [ %23, %22 ], [ %25, %24 ]
  store ptr %27, ptr %18, align 8, !tbaa !52
  br label %28

28:                                               ; preds = %._crit_edge, %26
  %29 = phi i32 [ %10, %._crit_edge ], [ %.pre23, %26 ]
  %30 = phi ptr [ %.pre, %._crit_edge ], [ %27, %26 ]
  %31 = sext i32 %1 to i64
  %32 = tail call noalias ptr @malloc(i64 noundef %31) #14
  %33 = getelementptr inbounds nuw i8, ptr %0, i64 40
  %34 = add nsw i32 %29, 1
  store i32 %34, ptr %9, align 4, !tbaa !53
  %35 = sext i32 %29 to i64
  %36 = getelementptr inbounds ptr, ptr %30, i64 %35
  store ptr %32, ptr %36, align 8, !tbaa !54
  %37 = load ptr, ptr %33, align 8, !tbaa !52
  %38 = getelementptr inbounds ptr, ptr %37, i64 %35
  %39 = load ptr, ptr %38, align 8, !tbaa !54
  br label %47

40:                                               ; preds = %4
  %41 = getelementptr inbounds nuw i8, ptr %0, i64 24
  %42 = load ptr, ptr %41, align 8, !tbaa !47
  %43 = sext i32 %1 to i64
  %44 = getelementptr inbounds ptr, ptr %42, i64 %43
  %45 = load ptr, ptr %44, align 8, !tbaa !43
  %46 = tail call ptr @Mem_FixedEntryFetch(ptr noundef %45)
  br label %47

47:                                               ; preds = %2, %40, %28
  %.0 = phi ptr [ %39, %28 ], [ %46, %40 ], [ null, %2 ]
  ret ptr %.0
}